; ModuleID = '1/2145.c'
source_filename = "1/2145.c"
target datalayout = "e-m:e-p270:32:32-p271:32:32-p272:64:64-i64:64-f80:128-n8:16:32:64-S128"
target triple = "x86_64-pc-linux-gnu"

@.str = private unnamed_addr constant [3 x i8] c"%d\00", align 1
@.str.1 = private unnamed_addr constant [4 x i8] c"%d\0A\00", align 1

; Function Attrs: noinline nounwind uwtable
define dso_local i32 @main() #0 {
  %1 = alloca i32, align 4
  %2 = alloca i32, align 4
  %3 = alloca i32, align 4
  %4 = alloca [10000 x i32], align 16
  store i32 0, i32* %1, align 4
  store i32 0, i32* %3, align 4
  %5 = call i32 (i8*, ...) @__isoc99_scanf(i8* getelementptr inbounds ([3 x i8], [3 x i8]* @.str, i64 0, i64 0), i32* %2)
  store i32 0, i32* %3, align 4
  br label %6

6:                                                ; preds = %15, %0
  %7 = load i32, i32* %3, align 4
  %8 = load i32, i32* %2, align 4
  %9 = icmp slt i32 %7, %8
  br i1 %9, label %10, label %18

10:                                               ; preds = %6
  %11 = load i32, i32* %3, align 4
  %12 = sext i32 %11 to i64
  %13 = getelementptr inbounds [10000 x i32], [10000 x i32]* %4, i64 0, i64 %12
  %14 = call i32 (i8*, ...) @__isoc99_scanf(i8* getelementptr inbounds ([3 x i8], [3 x i8]* @.str, i64 0, i64 0), i32* %13)
  br label %15

15:                                               ; preds = %10
  %16 = load i32, i32* %3, align 4
  %17 = add nsw i32 %16, 1
  store i32 %17, i32* %3, align 4
  br label %6

18:                                               ; preds = %6
  store i32 0, i32* %3, align 4
  store i32 0, i32* %3, align 4
  br label %19

19:                                               ; preds = %30, %18
  %20 = load i32, i32* %3, align 4
  %21 = load i32, i32* %2, align 4
  %22 = icmp slt i32 %20, %21
  br i1 %22, label %23, label %33

23:                                               ; preds = %19
  %24 = load i32, i32* %3, align 4
  %25 = sext i32 %24 to i64
  %26 = getelementptr inbounds [10000 x i32], [10000 x i32]* %4, i64 0, i64 %25
  %27 = load i32, i32* %26, align 4
  %28 = call i32 @yin(i32 %27, i32 2)
  %29 = call i32 (i8*, ...) @printf(i8* getelementptr inbounds ([4 x i8], [4 x i8]* @.str.1, i64 0, i64 0), i32 %28)
  br label %30

30:                                               ; preds = %23
  %31 = load i32, i32* %3, align 4
  %32 = add nsw i32 %31, 1
  store i32 %32, i32* %3, align 4
  br label %19

33:                                               ; preds = %19
  ret i32 0
}

declare dso_local i32 @__isoc99_scanf(i8*, ...) #1

declare dso_local i32 @printf(i8*, ...) #1

; Function Attrs: noinline nounwind uwtable
define dso_local i32 @yin(i32 %0, i32 %1) #0 {
  %3 = alloca i32, align 4
  %4 = alloca i32, align 4
  %5 = alloca i32, align 4
  %6 = alloca i32, align 4
  %7 = alloca i32, align 4
  %8 = alloca i32, align 4
  %9 = alloca i32, align 4
  %10 = alloca [10000 x [2 x i32]], align 16
  store i32 %0, i32* %4, align 4
  store i32 %1, i32* %5, align 4
  %11 = load i32, i32* %5, align 4
  store i32 %11, i32* %6, align 4
  store i32 0, i32* %7, align 4
  store i32 0, i32* %8, align 4
  store i32 0, i32* %9, align 4
  %12 = load i32, i32* %4, align 4
  %13 = load i32, i32* %5, align 4
  %14 = icmp slt i32 %12, %13
  br i1 %14, label %15, label %19

15:                                               ; preds = %2
  %16 = load i32, i32* %4, align 4
  %17 = icmp ne i32 %16, 1
  br i1 %17, label %18, label %19

18:                                               ; preds = %15
  store i32 0, i32* %3, align 4
  br label %85

19:                                               ; preds = %15, %2
  %20 = load i32, i32* %4, align 4
  %21 = icmp eq i32 %20, 1
  br i1 %21, label %22, label %23

22:                                               ; preds = %19
  store i32 1, i32* %3, align 4
  br label %85

23:                                               ; preds = %19
  %24 = load i32, i32* %4, align 4
  %25 = call i32 @zhi(i32 %24)
  %26 = icmp eq i32 %25, 0
  br i1 %26, label %27, label %28

27:                                               ; preds = %23
  store i32 1, i32* %3, align 4
  br label %85

28:                                               ; preds = %23
  %29 = load i32, i32* %5, align 4
  store i32 %29, i32* %6, align 4
  br label %30

30:                                               ; preds = %55, %28
  %31 = load i32, i32* %6, align 4
  %32 = load i32, i32* %4, align 4
  %33 = icmp sle i32 %31, %32
  br i1 %33, label %34, label %58

34:                                               ; preds = %30
  %35 = load i32, i32* %4, align 4
  %36 = load i32, i32* %6, align 4
  %37 = srem i32 %35, %36
  %38 = icmp eq i32 %37, 0
  br i1 %38, label %39, label %54

39:                                               ; preds = %34
  %40 = load i32, i32* %4, align 4
  %41 = load i32, i32* %6, align 4
  %42 = sdiv i32 %40, %41
  %43 = load i32, i32* %7, align 4
  %44 = sext i32 %43 to i64
  %45 = getelementptr inbounds [10000 x [2 x i32]], [10000 x [2 x i32]]* %10, i64 0, i64 %44
  %46 = getelementptr inbounds [2 x i32], [2 x i32]* %45, i64 0, i64 0
  store i32 %42, i32* %46, align 8
  %47 = load i32, i32* %6, align 4
  %48 = load i32, i32* %7, align 4
  %49 = sext i32 %48 to i64
  %50 = getelementptr inbounds [10000 x [2 x i32]], [10000 x [2 x i32]]* %10, i64 0, i64 %49
  %51 = getelementptr inbounds [2 x i32], [2 x i32]* %50, i64 0, i64 1
  store i32 %47, i32* %51, align 4
  %52 = load i32, i32* %7, align 4
  %53 = add nsw i32 %52, 1
  store i32 %53, i32* %7, align 4
  br label %54

54:                                               ; preds = %39, %34
  br label %55

55:                                               ; preds = %54
  %56 = load i32, i32* %6, align 4
  %57 = add nsw i32 %56, 1
  store i32 %57, i32* %6, align 4
  br label %30

58:                                               ; preds = %30
  br label %59

59:                                               ; preds = %58
  br label %60

60:                                               ; preds = %59
  br label %61

61:                                               ; preds = %60
  store i32 0, i32* %8, align 4
  br label %62

62:                                               ; preds = %80, %61
  %63 = load i32, i32* %8, align 4
  %64 = load i32, i32* %7, align 4
  %65 = icmp slt i32 %63, %64
  br i1 %65, label %66, label %83

66:                                               ; preds = %62
  %67 = load i32, i32* %8, align 4
  %68 = sext i32 %67 to i64
  %69 = getelementptr inbounds [10000 x [2 x i32]], [10000 x [2 x i32]]* %10, i64 0, i64 %68
  %70 = getelementptr inbounds [2 x i32], [2 x i32]* %69, i64 0, i64 0
  %71 = load i32, i32* %70, align 8
  %72 = load i32, i32* %8, align 4
  %73 = sext i32 %72 to i64
  %74 = getelementptr inbounds [10000 x [2 x i32]], [10000 x [2 x i32]]* %10, i64 0, i64 %73
  %75 = getelementptr inbounds [2 x i32], [2 x i32]* %74, i64 0, i64 1
  %76 = load i32, i32* %75, align 4
  %77 = call i32 @yin(i32 %71, i32 %76)
  %78 = load i32, i32* %9, align 4
  %79 = add nsw i32 %78, %77
  store i32 %79, i32* %9, align 4
  br label %80

80:                                               ; preds = %66
  %81 = load i32, i32* %8, align 4
  %82 = add nsw i32 %81, 1
  store i32 %82, i32* %8, align 4
  br label %62

83:                                               ; preds = %62
  %84 = load i32, i32* %9, align 4
  store i32 %84, i32* %3, align 4
  br label %85

85:                                               ; preds = %83, %27, %22, %18
  %86 = load i32, i32* %3, align 4
  ret i32 %86
}

; Function Attrs: noinline nounwind uwtable
define dso_local i32 @zhi(i32 %0) #0 {
  %2 = alloca i32, align 4
  %3 = alloca i32, align 4
  %4 = alloca i32, align 4
  store i32 %0, i32* %2, align 4
  store i32 2, i32* %3, align 4
  store i32 0, i32* %4, align 4
  store i32 2, i32* %3, align 4
  br label %5

5:                                                ; preds = %17, %1
  %6 = load i32, i32* %3, align 4
  %7 = load i32, i32* %2, align 4
  %8 = sdiv i32 %7, 2
  %9 = icmp sle i32 %6, %8
  br i1 %9, label %10, label %20

10:                                               ; preds = %5
  %11 = load i32, i32* %2, align 4
  %12 = load i32, i32* %3, align 4
  %13 = srem i32 %11, %12
  %14 = icmp eq i32 %13, 0
  br i1 %14, label %15, label %16

15:                                               ; preds = %10
  store i32 1, i32* %4, align 4
  br label %20

16:                                               ; preds = %10
  br label %17

17:                                               ; preds = %16
  %18 = load i32, i32* %3, align 4
  %19 = add nsw i32 %18, 1
  store i32 %19, i32* %3, align 4
  br label %5

20:                                               ; preds = %15, %5
  %21 = load i32, i32* %4, align 4
  ret i32 %21
}


!llvm.module.flags = !{!0}
!llvm.ident = !{!1}

!0 = !{i32 1, !"wchar_size", i32 4}
!1 = !{!"clang version 10.0.0-4ubuntu1 "}
